target datalayout = "e-m:e-p270:32:32-p271:32:32-p272:64:64-i64:64-i128:128-f80:128-n8:16:32:64-S128"
target triple = "x86_64-pc-linux-gnu"

%struct.FT_GlyphRec_ = type { ptr, ptr, i32, %struct.FT_Vector_ }
%struct.FT_Vector_ = type { i64, i64 }
%struct.FT_BBox_ = type { i64, i64, i64, i64 }
%struct.FT_Glyph_Class_ = type { i64, i32, ptr, ptr, ptr, ptr, ptr, ptr }

; Function Attrs: nounwind uwtable
define void @FT_Glyph_Get_CBox(ptr noundef %0, i32 noundef %1, ptr noundef %2) #0 {
  %4 = alloca ptr, align 8
  %5 = alloca i32, align 4
  %6 = alloca ptr, align 8
  %7 = alloca ptr, align 8
  %8 = alloca i32, align 4
  store ptr %0, ptr %4, align 8, !tbaa !3
  store i32 %1, ptr %5, align 4, !tbaa !12
  store ptr %2, ptr %6, align 8, !tbaa !49
  call void @llvm.lifetime.start.p0(i64 8, ptr %7) #6
  %9 = load ptr, ptr %6, align 8, !tbaa !49
  %10 = icmp ne ptr %9, null
  br i1 %10, label %12, label %11

11:                                               ; preds = %3
  store i32 1, ptr %8, align 4
  br label %100

12:                                               ; preds = %3
  %13 = load ptr, ptr %6, align 8, !tbaa !49
  %14 = getelementptr inbounds nuw %struct.FT_BBox_, ptr %13, i32 0, i32 3
  store i64 0, ptr %14, align 8, !tbaa !55
  %15 = load ptr, ptr %6, align 8, !tbaa !49
  %16 = getelementptr inbounds nuw %struct.FT_BBox_, ptr %15, i32 0, i32 2
  store i64 0, ptr %16, align 8, !tbaa !54
  %17 = load ptr, ptr %6, align 8, !tbaa !49
  %18 = getelementptr inbounds nuw %struct.FT_BBox_, ptr %17, i32 0, i32 1
  store i64 0, ptr %18, align 8, !tbaa !57
  %19 = load ptr, ptr %6, align 8, !tbaa !49
  %20 = getelementptr inbounds nuw %struct.FT_BBox_, ptr %19, i32 0, i32 0
  store i64 0, ptr %20, align 8, !tbaa !51
  %21 = load ptr, ptr %4, align 8, !tbaa !3
  %22 = icmp ne ptr %21, null
  br i1 %22, label %23, label %28

23:                                               ; preds = %12
  %24 = load ptr, ptr %4, align 8, !tbaa !3
  %25 = getelementptr inbounds nuw %struct.FT_GlyphRec_, ptr %24, i32 0, i32 1
  %26 = load ptr, ptr %25, align 8, !tbaa !116
  %27 = icmp ne ptr %26, null
  br i1 %27, label %29, label %28

28:                                               ; preds = %23, %12
  store i32 1, ptr %8, align 4
  br label %100

29:                                               ; preds = %23
  %30 = load ptr, ptr %4, align 8, !tbaa !3
  %31 = getelementptr inbounds nuw %struct.FT_GlyphRec_, ptr %30, i32 0, i32 1
  %32 = load ptr, ptr %31, align 8, !tbaa !116
  store ptr %32, ptr %7, align 8, !tbaa !117
  %33 = load ptr, ptr %7, align 8, !tbaa !117
  %34 = getelementptr inbounds nuw %struct.FT_Glyph_Class_, ptr %33, i32 0, i32 6
  %35 = load ptr, ptr %34, align 8, !tbaa !131
  %36 = icmp ne ptr %35, null
  br i1 %36, label %38, label %37

37:                                               ; preds = %29
  store i32 1, ptr %8, align 4
  br label %100

38:                                               ; preds = %29
  %39 = load ptr, ptr %7, align 8, !tbaa !117
  %40 = getelementptr inbounds nuw %struct.FT_Glyph_Class_, ptr %39, i32 0, i32 6
  %41 = load ptr, ptr %40, align 8, !tbaa !131
  %42 = load ptr, ptr %4, align 8, !tbaa !3
  %43 = load ptr, ptr %6, align 8, !tbaa !49
  call void %41(ptr noundef %42, ptr noundef %43)
  %44 = load i32, ptr %5, align 4, !tbaa !12
  %45 = icmp eq i32 %44, 1
  br i1 %45, label %49, label %46

46:                                               ; preds = %38
  %47 = load i32, ptr %5, align 4, !tbaa !12
  %48 = icmp eq i32 %47, 3
  br i1 %48, label %49, label %76

49:                                               ; preds = %46, %38
  %50 = load ptr, ptr %6, align 8, !tbaa !49
  %51 = getelementptr inbounds nuw %struct.FT_BBox_, ptr %50, i32 0, i32 0
  %52 = load i64, ptr %51, align 8, !tbaa !51
  %53 = and i64 %52, -64
  %54 = load ptr, ptr %6, align 8, !tbaa !49
  %55 = getelementptr inbounds nuw %struct.FT_BBox_, ptr %54, i32 0, i32 0
  store i64 %53, ptr %55, align 8, !tbaa !51
  %56 = load ptr, ptr %6, align 8, !tbaa !49
  %57 = getelementptr inbounds nuw %struct.FT_BBox_, ptr %56, i32 0, i32 1
  %58 = load i64, ptr %57, align 8, !tbaa !57
  %59 = and i64 %58, -64
  %60 = load ptr, ptr %6, align 8, !tbaa !49
  %61 = getelementptr inbounds nuw %struct.FT_BBox_, ptr %60, i32 0, i32 1
  store i64 %59, ptr %61, align 8, !tbaa !57
  %62 = load ptr, ptr %6, align 8, !tbaa !49
  %63 = getelementptr inbounds nuw %struct.FT_BBox_, ptr %62, i32 0, i32 2
  %64 = load i64, ptr %63, align 8, !tbaa !54
  %65 = add i64 %64, 63
  %66 = and i64 %65, -64
  %67 = load ptr, ptr %6, align 8, !tbaa !49
  %68 = getelementptr inbounds nuw %struct.FT_BBox_, ptr %67, i32 0, i32 2
  store i64 %66, ptr %68, align 8, !tbaa !54
  %69 = load ptr, ptr %6, align 8, !tbaa !49
  %70 = getelementptr inbounds nuw %struct.FT_BBox_, ptr %69, i32 0, i32 3
  %71 = load i64, ptr %70, align 8, !tbaa !55
  %72 = add i64 %71, 63
  %73 = and i64 %72, -64
  %74 = load ptr, ptr %6, align 8, !tbaa !49
  %75 = getelementptr inbounds nuw %struct.FT_BBox_, ptr %74, i32 0, i32 3
  store i64 %73, ptr %75, align 8, !tbaa !55
  br label %76

76:                                               ; preds = %49, %46
  %77 = load i32, ptr %5, align 4, !tbaa !12
  %78 = icmp eq i32 %77, 2
  br i1 %78, label %82, label %79

79:                                               ; preds = %76
  %80 = load i32, ptr %5, align 4, !tbaa !12
  %81 = icmp eq i32 %80, 3
  br i1 %81, label %82, label %99

82:                                               ; preds = %79, %76
  %83 = load ptr, ptr %6, align 8, !tbaa !49
  %84 = getelementptr inbounds nuw %struct.FT_BBox_, ptr %83, i32 0, i32 0
  %85 = load i64, ptr %84, align 8, !tbaa !51
  %86 = ashr i64 %85, 6
  store i64 %86, ptr %84, align 8, !tbaa !51
  %87 = load ptr, ptr %6, align 8, !tbaa !49
  %88 = getelementptr inbounds nuw %struct.FT_BBox_, ptr %87, i32 0, i32 1
  %89 = load i64, ptr %88, align 8, !tbaa !57
  %90 = ashr i64 %89, 6
  store i64 %90, ptr %88, align 8, !tbaa !57
  %91 = load ptr, ptr %6, align 8, !tbaa !49
  %92 = getelementptr inbounds nuw %struct.FT_BBox_, ptr %91, i32 0, i32 2
  %93 = load i64, ptr %92, align 8, !tbaa !54
  %94 = ashr i64 %93, 6
  store i64 %94, ptr %92, align 8, !tbaa !54
  %95 = load ptr, ptr %6, align 8, !tbaa !49
  %96 = getelementptr inbounds nuw %struct.FT_BBox_, ptr %95, i32 0, i32 3
  %97 = load i64, ptr %96, align 8, !tbaa !55
  %98 = ashr i64 %97, 6
  store i64 %98, ptr %96, align 8, !tbaa !55
  br label %99

99:                                               ; preds = %82, %79
  store i32 0, ptr %8, align 4
  br label %100

100:                                              ; preds = %99, %37, %28, %11
  call void @llvm.lifetime.end.p0(i64 8, ptr %7) #6
  %101 = load i32, ptr %8, align 4
  switch i32 %101, label %103 [
    i32 0, label %102
    i32 1, label %102
  ]

102:                                              ; preds = %100, %100
  ret void

103:                                              ; preds = %100
  unreachable
}