; Function Attrs: nounwind uwtable
define void @FT_Glyph_Get_CBox(ptr noundef %0, i32 noundef %1, ptr noundef %2) local_unnamed_addr #0 {
  %.not = icmp eq ptr %2, null
  br i1 %.not, label %38, label %4

4:                                                ; preds = %3
  %5 = getelementptr inbounds nuw i8, ptr %2, i64 24
  %6 = getelementptr inbounds nuw i8, ptr %2, i64 16
  %7 = getelementptr inbounds nuw i8, ptr %2, i64 8
  %.not33 = icmp eq ptr %0, null
  tail call void @llvm.memset.p0.i64(ptr noundef nonnull align 8 dereferenceable(32) %2, i8 0, i64 32, i1 false)
  br i1 %.not33, label %38, label %8

8:                                                ; preds = %4
  %9 = getelementptr inbounds nuw i8, ptr %0, i64 8
  %10 = load ptr, ptr %9, align 8, !tbaa !95
  %.not34 = icmp eq ptr %10, null
  br i1 %.not34, label %38, label %11

11:                                               ; preds = %8
  %12 = getelementptr inbounds nuw i8, ptr %10, i64 48
  %13 = load ptr, ptr %12, align 8, !tbaa !110
  %.not35 = icmp eq ptr %13, null
  br i1 %.not35, label %38, label %14

14:                                               ; preds = %11
  tail call void %13(ptr noundef nonnull %0, ptr noundef nonnull %2) #6
  %15 = and i32 %1, -3
  %or.cond = icmp eq i32 %15, 1
  br i1 %or.cond, label %16, label %27

16:                                               ; preds = %14
  %17 = load i64, ptr %2, align 8, !tbaa !43
  %18 = and i64 %17, -64
  store i64 %18, ptr %2, align 8, !tbaa !43
  %19 = load i64, ptr %7, align 8, !tbaa !49
  %20 = and i64 %19, -64
  store i64 %20, ptr %7, align 8, !tbaa !49
  %21 = load i64, ptr %6, align 8, !tbaa !46
  %22 = add i64 %21, 63
  %23 = and i64 %22, -64
  store i64 %23, ptr %6, align 8, !tbaa !46
  %24 = load i64, ptr %5, align 8, !tbaa !47
  %25 = add i64 %24, 63
  %26 = and i64 %25, -64
  store i64 %26, ptr %5, align 8, !tbaa !47
  br label %27

27:                                               ; preds = %14, %16
  %28 = and i32 %1, -2
  %or.cond3 = icmp eq i32 %28, 2
  br i1 %or.cond3, label %29, label %38

29:                                               ; preds = %27
  %30 = load i64, ptr %2, align 8, !tbaa !43
  %31 = ashr i64 %30, 6
  store i64 %31, ptr %2, align 8, !tbaa !43
  %32 = load i64, ptr %7, align 8, !tbaa !49
  %33 = ashr i64 %32, 6
  store i64 %33, ptr %7, align 8, !tbaa !49
  %34 = load i64, ptr %6, align 8, !tbaa !46
  %35 = ashr i64 %34, 6
  store i64 %35, ptr %6, align 8, !tbaa !46
  %36 = load i64, ptr %5, align 8, !tbaa !47
  %37 = ashr i64 %36, 6
  store i64 %37, ptr %5, align 8, !tbaa !47
  br label %38

38:                                               ; preds = %29, %27, %11, %4, %8, %3
  ret void
}